target datalayout = "e-m:e-p270:32:32-p271:32:32-p272:64:64-i64:64-i128:128-f80:128-n8:16:32:64-S128"
target triple = "x86_64-pc-linux-gnu"

%class.FakeRttiSupport = type <{ i64, i32, [4 x i8] }>
%class.CardTableBarrierSet = type { %class.ModRefBarrierSet, i8, ptr }
%class.ModRefBarrierSet = type { %class.BarrierSet }
%class.BarrierSet = type { ptr, %class.FakeRttiSupport, ptr, ptr, ptr, ptr, ptr }

@ReduceInitialCardMarks = external global i8, align 1
@DeferInitialCardMark = external global i8, align 1
@TieredStopAtLevel = external global i64, align 8
@_ZN9Arguments5_modeE = external global i32, align 4
@TieredCompilation = external global i8, align 1
@_ZN19CompilationModeFlag5_modeE = external global i32, align 4
@UseJVMCICompiler = external global i8, align 1

; Function Attrs: mustprogress nounwind uwtable
define linkonce_odr hidden noundef i32 @_ZN9Arguments4modeEv() #1 comdat align 2 {
  %1 = load i32, ptr @_ZN9Arguments5_modeE, align 4
  ret i32 %1
}

; Function Attrs: mustprogress nounwind uwtable
define linkonce_odr hidden noundef zeroext i1 @_ZN19CompilationModeFlag10quick_onlyEv() #1 comdat align 2 {
  %1 = load i32, ptr @_ZN19CompilationModeFlag5_modeE, align 4
  %2 = icmp eq i32 %1, 1
  ret i1 %2
}

; Function Attrs: mustprogress nounwind uwtable
define linkonce_odr hidden noundef zeroext i1 @_ZN9Arguments19is_interpreter_onlyEv() #1 comdat align 2 {
  %1 = call noundef i32 @_ZN9Arguments4modeEv()
  %2 = icmp eq i32 %1, 0
  ret i1 %2
}

; Function Attrs: mustprogress nounwind uwtable
define linkonce_odr hidden noundef zeroext i1 @_ZN14CompilerConfig17is_jvmci_compilerEv() #1 comdat align 2 {
  %1 = load i8, ptr @UseJVMCICompiler, align 1
  %2 = trunc i8 %1 to i1
  ret i1 %2
}

; Function Attrs: mustprogress nounwind uwtable
define linkonce_odr hidden noundef zeroext i1 @_ZN14CompilerConfig10is_c1_onlyEv() #1 comdat align 2 {
  %1 = alloca i1, align 1
  %2 = alloca i8, align 1
  %3 = alloca i8, align 1
  %4 = alloca i8, align 1
  %5 = call noundef zeroext i1 @_ZN14CompilerConfig19is_interpreter_onlyEv()
  br i1 %5, label %27, label %6

6:                                                ; preds = %0
  store i8 0, ptr %2, align 1
  %7 = load i8, ptr @TieredCompilation, align 1
  %8 = trunc i8 %7 to i1
  br i1 %8, label %9, label %15

9:                                                ; preds = %6
  %10 = load i64, ptr @TieredStopAtLevel, align 8
  %11 = icmp sge i64 %10, 1
  br i1 %11, label %12, label %15

12:                                               ; preds = %9
  %13 = load i64, ptr @TieredStopAtLevel, align 8
  %14 = icmp slt i64 %13, 4
  br label %15

15:                                               ; preds = %12, %9, %6
  %16 = phi i1 [ false, %9 ], [ false, %6 ], [ %14, %12 ]
  %17 = zext i1 %16 to i8
  store i8 %17, ptr %3, align 1
  %18 = call noundef zeroext i1 @_ZN19CompilationModeFlag10quick_onlyEv()
  %19 = zext i1 %18 to i8
  store i8 %19, ptr %4, align 1
  %20 = load i8, ptr %3, align 1
  %21 = trunc i8 %20 to i1
  br i1 %21, label %25, label %22

22:                                               ; preds = %15
  %23 = load i8, ptr %4, align 1
  %24 = trunc i8 %23 to i1
  br label %25

25:                                               ; preds = %22, %15
  %26 = phi i1 [ true, %15 ], [ %24, %22 ]
  store i1 %26, ptr %1, align 1
  br label %28

27:                                               ; preds = %0
  store i1 false, ptr %1, align 1
  br label %28

28:                                               ; preds = %27, %25
  %29 = load i1, ptr %1, align 1
  ret i1 %29
}

; Function Attrs: mustprogress nounwind uwtable
define linkonce_odr hidden noundef zeroext i1 @_ZN14CompilerConfig19is_interpreter_onlyEv() #1 comdat align 2 {
  %1 = call noundef zeroext i1 @_ZN9Arguments19is_interpreter_onlyEv()
  br i1 %1, label %5, label %2

2:                                                ; preds = %0
  %3 = load i64, ptr @TieredStopAtLevel, align 8
  %4 = icmp eq i64 %3, 0
  br label %5

5:                                                ; preds = %2, %0
  %6 = phi i1 [ true, %0 ], [ %4, %2 ]
  ret i1 %6
}

; Function Attrs: mustprogress nounwind uwtable
define linkonce_odr hidden noundef zeroext i1 @_ZN14CompilerConfig25is_jvmci_compiler_enabledEv() #1 comdat align 2 {
  %1 = call noundef zeroext i1 @_ZN14CompilerConfig17is_jvmci_compilerEv()
  br i1 %1, label %2, label %7

2:                                                ; preds = %0
  %3 = call noundef zeroext i1 @_ZN14CompilerConfig19is_interpreter_onlyEv()
  br i1 %3, label %7, label %4

4:                                                ; preds = %2
  %5 = call noundef zeroext i1 @_ZN14CompilerConfig10is_c1_onlyEv()
  %6 = xor i1 %5, true
  br label %7

7:                                                ; preds = %4, %2, %0
  %8 = phi i1 [ false, %2 ], [ false, %0 ], [ %6, %4 ]
  ret i1 %8
}

; Function Attrs: mustprogress nounwind uwtable
define linkonce_odr hidden noundef zeroext i1 @_ZN14CompilerConfig13is_c2_enabledEv() #1 comdat align 2 {
  %1 = call noundef zeroext i1 @_ZN14CompilerConfig19is_interpreter_onlyEv()
  br i1 %1, label %7, label %2

2:                                                ; preds = %0
  %3 = call noundef zeroext i1 @_ZN14CompilerConfig10is_c1_onlyEv()
  br i1 %3, label %7, label %4

4:                                                ; preds = %2
  %5 = call noundef zeroext i1 @_ZN14CompilerConfig17is_jvmci_compilerEv()
  %6 = xor i1 %5, true
  br label %7

7:                                                ; preds = %4, %2, %0
  %8 = phi i1 [ false, %2 ], [ false, %0 ], [ %6, %4 ]
  ret i1 %8
}

; Function Attrs: mustprogress nounwind uwtable
define linkonce_odr hidden noundef zeroext i1 @_ZN14CompilerConfig31is_c2_or_jvmci_compiler_enabledEv() #1 comdat align 2 {
  %1 = call noundef zeroext i1 @_ZN14CompilerConfig13is_c2_enabledEv()
  br i1 %1, label %4, label %2

2:                                                ; preds = %0
  %3 = call noundef zeroext i1 @_ZN14CompilerConfig25is_jvmci_compiler_enabledEv()
  br label %4

4:                                                ; preds = %2, %0
  %5 = phi i1 [ true, %0 ], [ %3, %2 ]
  ret i1 %5
}

; Function Attrs: mustprogress nounwind uwtable
define hidden void @_ZN19CardTableBarrierSet38initialize_deferred_card_mark_barriersEv(ptr noundef nonnull align 8 dereferenceable(80) %0) #1 align 2 {
  %2 = alloca ptr, align 8
  store ptr %0, ptr %2, align 8
  %3 = load ptr, ptr %2, align 8
  %4 = call noundef zeroext i1 @_ZN14CompilerConfig31is_c2_or_jvmci_compiler_enabledEv()
  br i1 %4, label %5, label %18

5:                                                ; preds = %1
  %6 = load i8, ptr @ReduceInitialCardMarks, align 1
  %7 = trunc i8 %6 to i1
  br i1 %7, label %8, label %18

8:                                                ; preds = %5
  %9 = load i8, ptr @DeferInitialCardMark, align 1
  %10 = trunc i8 %9 to i1
  br i1 %10, label %16, label %11

11:                                               ; preds = %8
  %12 = load ptr, ptr %3, align 8
  %13 = getelementptr inbounds ptr, ptr %12, i64 13
  %14 = load ptr, ptr %13, align 8
  %15 = call noundef zeroext i1 %14(ptr noundef nonnull align 8 dereferenceable(80) %3)
  br label %16

16:                                               ; preds = %11, %8
  %17 = phi i1 [ true, %8 ], [ %15, %11 ]
  br label %18

18:                                               ; preds = %16, %5, %1
  %19 = phi i1 [ false, %5 ], [ false, %1 ], [ %17, %16 ]
  %20 = getelementptr inbounds %class.CardTableBarrierSet, ptr %3, i32 0, i32 1
  %21 = zext i1 %19 to i8
  store i8 %21, ptr %20, align 8
  ret void
}

; Function Attrs: mustprogress nounwind uwtable
define hidden void @_ZN19CardTableBarrierSet10initializeEv(ptr noundef nonnull align 8 dereferenceable(80) %0) #1 align 2 {
  %2 = alloca ptr, align 8
  store ptr %0, ptr %2, align 8
  %3 = load ptr, ptr %2, align 8
  call void @_ZN19CardTableBarrierSet38initialize_deferred_card_mark_barriersEv(ptr noundef nonnull align 8 dereferenceable(80) %3)
  ret void
}