; Function Attrs: mustprogress nounwind uwtable
define hidden void @_ZN19CardTableBarrierSet10initializeEv(ptr noundef nonnull align 8 dereferenceable(80) %0) local_unnamed_addr #0 align 2 {
  %2 = load i32, ptr @_ZN9Arguments5_modeE, align 4
  %3 = icmp eq i32 %2, 0
  %4 = load i64, ptr @TieredStopAtLevel, align 8
  %5 = icmp eq i64 %4, 0
  %6 = select i1 %3, i1 true, i1 %5
  br i1 %6, label %_ZN19CardTableBarrierSet38initialize_deferred_card_mark_barriersEv.exit, label %_ZN14CompilerConfig31is_c2_or_jvmci_compiler_enabledEv.exit.i

_ZN14CompilerConfig31is_c2_or_jvmci_compiler_enabledEv.exit.i: ; preds = %1
  %7 = load i8, ptr @TieredCompilation, align 1
  %8 = trunc i8 %7 to i1
  %9 = add i64 %4, -1
  %10 = icmp ult i64 %9, 3
  %spec.select.i.i.i.i = select i1 %8, i1 %10, i1 false
  %11 = load i32, ptr @_ZN19CompilationModeFlag5_modeE, align 4
  %12 = icmp eq i32 %11, 1
  %13 = or i1 %spec.select.i.i.i.i, %12
  br i1 %13, label %_ZN19CardTableBarrierSet38initialize_deferred_card_mark_barriersEv.exit, label %14

14:                                               ; preds = %_ZN14CompilerConfig31is_c2_or_jvmci_compiler_enabledEv.exit.i
  %15 = load i8, ptr @ReduceInitialCardMarks, align 1
  %16 = trunc i8 %15 to i1
  br i1 %16, label %17, label %_ZN19CardTableBarrierSet38initialize_deferred_card_mark_barriersEv.exit

17:                                               ; preds = %14
  %18 = load i8, ptr @DeferInitialCardMark, align 1
  %19 = trunc i8 %18 to i1
  br i1 %19, label %_ZN19CardTableBarrierSet38initialize_deferred_card_mark_barriersEv.exit, label %20

20:                                               ; preds = %17
  %21 = load ptr, ptr %0, align 8
  %22 = getelementptr inbounds i8, ptr %21, i64 104
  %23 = load ptr, ptr %22, align 8
  %24 = tail call noundef zeroext i1 %23(ptr noundef nonnull align 8 dereferenceable(80) %0) #6
  %25 = zext i1 %24 to i8
  br label %_ZN19CardTableBarrierSet38initialize_deferred_card_mark_barriersEv.exit

_ZN19CardTableBarrierSet38initialize_deferred_card_mark_barriersEv.exit: ; preds = %1, %_ZN14CompilerConfig31is_c2_or_jvmci_compiler_enabledEv.exit.i, %14, %17, %20
  %26 = phi i8 [ 0, %14 ], [ 0, %_ZN14CompilerConfig31is_c2_or_jvmci_compiler_enabledEv.exit.i ], [ 1, %17 ], [ %25, %20 ], [ 0, %1 ]
  %27 = getelementptr inbounds i8, ptr %0, i64 64
  store i8 %26, ptr %27, align 8
  ret void
}